; Function Attrs: mustprogress nounwind uwtable
define dso_local void @_ZNK4llvm3pdb18PDBSymbolCompiland17getSourceFileNameB5cxx11Ev(ptr dead_on_unwind noalias writable sret(%"class.std::__cxx11::basic_string") align 8 %0, ptr noundef nonnull align 8 dereferenceable(32) %1) local_unnamed_addr #0 align 2 {
  %3 = alloca %"class.std::allocator", align 1
  %4 = alloca %"class.std::__cxx11::basic_string", align 8
  call void @_ZNK4llvm3pdb18PDBSymbolCompiland21getSourceFileFullPathB5cxx11Ev(ptr dead_on_unwind nonnull writable sret(%"class.std::__cxx11::basic_string") align 8 %4, ptr noundef nonnull align 8 dereferenceable(32) %1)
  %5 = call noundef ptr @_ZNKSt7__cxx1112basic_stringIcSt11char_traitsIcESaIcEE4dataEv(ptr noundef nonnull align 8 dereferenceable(32) %4) #8
  %6 = call noundef i64 @_ZNKSt7__cxx1112basic_stringIcSt11char_traitsIcESaIcEE6lengthEv(ptr noundef nonnull align 8 dereferenceable(32) %4) #8
  %7 = call { ptr, i64 } @_ZN4llvm3sys4path8filenameENS_9StringRefENS1_5StyleE(ptr %5, i64 %6, i32 noundef 0) #8
  %8 = extractvalue { ptr, i64 } %7, 0
  call void @llvm.lifetime.start.p0(i64 1, ptr nonnull %3)
  %.not.i = icmp eq ptr %8, null
  br i1 %.not.i, label %9, label %10

9:                                                ; preds = %2
  call void @_ZNSt7__cxx1112basic_stringIcSt11char_traitsIcESaIcEEC1Ev(ptr noundef nonnull align 8 dereferenceable(32) %0) #8
  br label %_ZNK4llvm9StringRef3strB5cxx11Ev.exit

10:                                               ; preds = %2
  %11 = extractvalue { ptr, i64 } %7, 1
  call void @_ZNSaIcEC1Ev(ptr noundef nonnull align 1 dereferenceable(1) %3) #8, !noalias !4
  call void @_ZNSt7__cxx1112basic_stringIcSt11char_traitsIcESaIcEEC1EPKcmRKS3_(ptr noundef nonnull align 8 dereferenceable(32) %0, ptr noundef nonnull %8, i64 noundef %11, ptr noundef nonnull align 1 dereferenceable(1) %3) #8
  call void @_ZNSaIcED1Ev(ptr noundef nonnull align 1 dereferenceable(1) %3) #8
  br label %_ZNK4llvm9StringRef3strB5cxx11Ev.exit

_ZNK4llvm9StringRef3strB5cxx11Ev.exit:            ; preds = %9, %10
  call void @llvm.lifetime.end.p0(i64 1, ptr nonnull %3)
  call void @_ZNSt7__cxx1112basic_stringIcSt11char_traitsIcESaIcEED1Ev(ptr noundef nonnull align 8 dereferenceable(32) %4) #8
  ret void
}